; Function Attrs: mustprogress nofree norecurse nounwind willreturn uwtable
define hidden void @_ZNK2cv18ConjGradSolverImpl11getFunctionEv(ptr dead_on_unwind noalias writable writeonly sret(%"struct.cv::Ptr") align 8 captures(none) initializes((0, 16)) %0, ptr noundef nonnull readonly align 8 captures(none) dereferenceable(616) %1) unnamed_addr #9 align 2 personality ptr @__gxx_personality_v0 {
  %3 = getelementptr inbounds nuw i8, ptr %1, i64 8
  %4 = load ptr, ptr %3, align 8, !tbaa !18
  store ptr %4, ptr %0, align 8, !tbaa !18
  %5 = getelementptr inbounds nuw i8, ptr %0, i64 8
  %6 = getelementptr inbounds nuw i8, ptr %1, i64 16
  %7 = load ptr, ptr %6, align 8, !tbaa !65
  store ptr %7, ptr %5, align 8, !tbaa !65
  %.not.i.i.i.i = icmp eq ptr %7, null
  br i1 %.not.i.i.i.i, label %_ZN2cv3PtrINS_16MinProblemSolver8FunctionEEC2ERKS3_.exit, label %8

8:                                                ; preds = %2
  %9 = getelementptr inbounds nuw i8, ptr %7, i64 8
  %10 = load i8, ptr @__libc_single_threaded, align 1, !tbaa !66
  %.not.i.i.i.i.i = icmp eq i8 %10, 0
  br i1 %.not.i.i.i.i.i, label %14, label %11

11:                                               ; preds = %8
  %12 = load i32, ptr %9, align 4, !tbaa !67
  %13 = add nsw i32 %12, 1
  store i32 %13, ptr %9, align 4, !tbaa !67
  br label %_ZN2cv3PtrINS_16MinProblemSolver8FunctionEEC2ERKS3_.exit

14:                                               ; preds = %8
  %15 = atomicrmw volatile add ptr %9, i32 1 acq_rel, align 4
  br label %_ZN2cv3PtrINS_16MinProblemSolver8FunctionEEC2ERKS3_.exit

_ZN2cv3PtrINS_16MinProblemSolver8FunctionEEC2ERKS3_.exit: ; preds = %2, %11, %14
  ret void
}